
build/output.elf:     file format elf32-littlearm


Disassembly of section .init:

00008000 <_start>:
    8000:	ea0004b9 	b	92ec <main>

Disassembly of section .text:

000092ec <main>:
    92ec:	e3a0d902 	mov	sp, #32768	; 0x8000
    92f0:	eb00013a 	bl	97e0 <EnableJTAG>
    92f4:	eb00015c 	bl	986c <InitUART>
    92f8:	e59f0490 	ldr	r0, [pc, #1168]	; 9790 <Print_Message_DONE+0x4>
    92fc:	e3a01046 	mov	r1, #70	; 0x46
    9300:	eb000197 	bl	9964 <WriteStringUART>
    9304:	e59f0488 	ldr	r0, [pc, #1160]	; 9794 <Print_Message_DONE+0x8>
    9308:	e3a0101c 	mov	r1, #28
    930c:	eb000194 	bl	9964 <WriteStringUART>
    9310:	e3a00009 	mov	r0, #9
    9314:	e3a01001 	mov	r1, #1
    9318:	eb000007 	bl	933c <Init_GPIO>
    931c:	e3a0000a 	mov	r0, #10
    9320:	e3a01000 	mov	r1, #0
    9324:	eb000004 	bl	933c <Init_GPIO>
    9328:	e3a0000b 	mov	r0, #11
    932c:	e3a01001 	mov	r1, #1
    9330:	eb000001 	bl	933c <Init_GPIO>
    9334:	eb00004f 	bl	9478 <Read_SNES>

00009338 <haltLoop$>:
    9338:	eafffffe 	b	9338 <haltLoop$>

0000933c <Init_GPIO>:
    933c:	e3500009 	cmp	r0, #9
    9340:	0a000004 	beq	9358 <LATCH>
    9344:	e350000a 	cmp	r0, #10
    9348:	0a00000b 	beq	937c <DATA>
    934c:	e350000b 	cmp	r0, #11
    9350:	0a000012 	beq	93a0 <CLOCK>
    9354:	ea00001a 	b	93c4 <Init_GPIO_DONE>

00009358 <LATCH>:
    9358:	e59f0438 	ldr	r0, [pc, #1080]	; 9798 <Print_Message_DONE+0xc>
    935c:	e5902000 	ldr	r2, [r0]
    9360:	e3a03007 	mov	r3, #7
    9364:	e1a03d83 	lsl	r3, r3, #27
    9368:	e1c22003 	bic	r2, r2, r3
    936c:	e1a01d81 	lsl	r1, r1, #27
    9370:	e1822001 	orr	r2, r2, r1
    9374:	e5802000 	str	r2, [r0]
    9378:	ea000011 	b	93c4 <Init_GPIO_DONE>

0000937c <DATA>:
    937c:	e59f0418 	ldr	r0, [pc, #1048]	; 979c <Print_Message_DONE+0x10>
    9380:	e5902000 	ldr	r2, [r0]
    9384:	e3a03007 	mov	r3, #7
    9388:	e1a03003 	mov	r3, r3
    938c:	e1c22003 	bic	r2, r2, r3
    9390:	e1a01001 	mov	r1, r1
    9394:	e1822001 	orr	r2, r2, r1
    9398:	e5802000 	str	r2, [r0]
    939c:	ea000008 	b	93c4 <Init_GPIO_DONE>

000093a0 <CLOCK>:
    93a0:	e59f03f4 	ldr	r0, [pc, #1012]	; 979c <Print_Message_DONE+0x10>
    93a4:	e5902000 	ldr	r2, [r0]
    93a8:	e3a03007 	mov	r3, #7
    93ac:	e1a03183 	lsl	r3, r3, #3
    93b0:	e1c22003 	bic	r2, r2, r3
    93b4:	e1a01181 	lsl	r1, r1, #3
    93b8:	e1822001 	orr	r2, r2, r1
    93bc:	e5802000 	str	r2, [r0]
    93c0:	eaffffff 	b	93c4 <Init_GPIO_DONE>

000093c4 <Init_GPIO_DONE>:
    93c4:	e1a0f00e 	mov	pc, lr

000093c8 <Write_Latch>:
    93c8:	e3500000 	cmp	r0, #0
    93cc:	0a000001 	beq	93d8 <Latch_W_0>
    93d0:	e3500001 	cmp	r0, #1
    93d4:	0a000004 	beq	93ec <Latch_W_1>

000093d8 <Latch_W_0>:
    93d8:	e59f13c0 	ldr	r1, [pc, #960]	; 97a0 <Print_Message_DONE+0x14>
    93dc:	e3a02001 	mov	r2, #1
    93e0:	e1a02482 	lsl	r2, r2, #9
    93e4:	e5812000 	str	r2, [r1]
    93e8:	ea000003 	b	93fc <Write_Latch_DONE>

000093ec <Latch_W_1>:
    93ec:	e59f13b0 	ldr	r1, [pc, #944]	; 97a4 <Print_Message_DONE+0x18>
    93f0:	e3a02001 	mov	r2, #1
    93f4:	e1a02482 	lsl	r2, r2, #9
    93f8:	e5812000 	str	r2, [r1]

000093fc <Write_Latch_DONE>:
    93fc:	e1a0f00e 	mov	pc, lr

00009400 <Write_Clock>:
    9400:	e3500000 	cmp	r0, #0
    9404:	0a000001 	beq	9410 <Clock_W_0>
    9408:	e3500001 	cmp	r0, #1
    940c:	0a000004 	beq	9424 <Clock_W_1>

00009410 <Clock_W_0>:
    9410:	e59f1388 	ldr	r1, [pc, #904]	; 97a0 <Print_Message_DONE+0x14>
    9414:	e3a02001 	mov	r2, #1
    9418:	e1a02582 	lsl	r2, r2, #11
    941c:	e5812000 	str	r2, [r1]
    9420:	ea000003 	b	9434 <Write_Clock_DONE>

00009424 <Clock_W_1>:
    9424:	e59f1378 	ldr	r1, [pc, #888]	; 97a4 <Print_Message_DONE+0x18>
    9428:	e3a02001 	mov	r2, #1
    942c:	e1a02582 	lsl	r2, r2, #11
    9430:	e5812000 	str	r2, [r1]

00009434 <Write_Clock_DONE>:
    9434:	e1a0f00e 	mov	pc, lr

00009438 <Read_Data>:
    9438:	e59f1368 	ldr	r1, [pc, #872]	; 97a8 <Print_Message_DONE+0x1c>
    943c:	e5912000 	ldr	r2, [r1]
    9440:	e3a03001 	mov	r3, #1
    9444:	e1a03503 	lsl	r3, r3, #10
    9448:	e0022003 	and	r2, r2, r3
    944c:	e3320000 	teq	r2, #0
    9450:	03a04000 	moveq	r4, #0
    9454:	13a04001 	movne	r4, #1

00009458 <Read_Data_DONE>:
    9458:	e1a0f00e 	mov	pc, lr

0000945c <Wait>:
    945c:	e59f1348 	ldr	r1, [pc, #840]	; 97ac <Print_Message_DONE+0x20>
    9460:	e5912000 	ldr	r2, [r1]
    9464:	e0822000 	add	r2, r2, r0

00009468 <waitLoop>:
    9468:	e5913000 	ldr	r3, [r1]
    946c:	e1520003 	cmp	r2, r3
    9470:	8afffffc 	bhi	9468 <waitLoop>

00009474 <Wait_DONE>:
    9474:	e1a0f00e 	mov	pc, lr

00009478 <Read_SNES>:
    9478:	e3a00001 	mov	r0, #1
    947c:	ebffffdf 	bl	9400 <Write_Clock>

00009480 <startOfLoop>:
    9480:	e3a00001 	mov	r0, #1
    9484:	ebffffcf 	bl	93c8 <Write_Latch>
    9488:	e3a0000c 	mov	r0, #12
    948c:	ebfffff2 	bl	945c <Wait>
    9490:	e3a00000 	mov	r0, #0
    9494:	ebffffcb 	bl	93c8 <Write_Latch>
    9498:	e3a05000 	mov	r5, #0
    949c:	e3a07000 	mov	r7, #0

000094a0 <pulseLoop>:
    94a0:	e3550010 	cmp	r5, #16
    94a4:	aa00000c 	bge	94dc <pulseLoopDone>
    94a8:	e3a00006 	mov	r0, #6
    94ac:	ebffffea 	bl	945c <Wait>
    94b0:	e3a00000 	mov	r0, #0
    94b4:	ebffffd1 	bl	9400 <Write_Clock>
    94b8:	e3a00006 	mov	r0, #6
    94bc:	ebffffe6 	bl	945c <Wait>
    94c0:	ebffffdc 	bl	9438 <Read_Data>
    94c4:	e1a04514 	lsl	r4, r4, r5
    94c8:	e1877004 	orr	r7, r7, r4
    94cc:	e3a00001 	mov	r0, #1
    94d0:	ebffffca 	bl	9400 <Write_Clock>
    94d4:	e2855001 	add	r5, r5, #1
    94d8:	eafffff0 	b	94a0 <pulseLoop>

000094dc <pulseLoopDone>:
    94dc:	e3a06001 	mov	r6, #1
    94e0:	e1a06006 	mov	r6, r6
    94e4:	e0068007 	and	r8, r6, r7
    94e8:	e3580000 	cmp	r8, #0
    94ec:	1a000002 	bne	94fc <next1>
    94f0:	e59f02b8 	ldr	r0, [pc, #696]	; 97b0 <Print_Message_DONE+0x24>
    94f4:	e3a01011 	mov	r1, #17
    94f8:	eb000119 	bl	9964 <WriteStringUART>

000094fc <next1>:
    94fc:	e3a06001 	mov	r6, #1
    9500:	e1a06086 	lsl	r6, r6, #1
    9504:	e0068007 	and	r8, r6, r7
    9508:	e3580000 	cmp	r8, #0
    950c:	1a000002 	bne	951c <next2>
    9510:	e59f029c 	ldr	r0, [pc, #668]	; 97b4 <Print_Message_DONE+0x28>
    9514:	e3a01011 	mov	r1, #17
    9518:	eb000111 	bl	9964 <WriteStringUART>

0000951c <next2>:
    951c:	e3a06001 	mov	r6, #1
    9520:	e1a06106 	lsl	r6, r6, #2
    9524:	e0068007 	and	r8, r6, r7
    9528:	e3580000 	cmp	r8, #0
    952c:	1a000002 	bne	953c <next3>
    9530:	e59f0280 	ldr	r0, [pc, #640]	; 97b8 <Print_Message_DONE+0x2c>
    9534:	e3a01016 	mov	r1, #22
    9538:	eb000109 	bl	9964 <WriteStringUART>

0000953c <next3>:
    953c:	e3a06001 	mov	r6, #1
    9540:	e1a06186 	lsl	r6, r6, #3
    9544:	e0068007 	and	r8, r6, r7
    9548:	e3580000 	cmp	r8, #0
    954c:	1a000003 	bne	9560 <next4>
    9550:	e59f0264 	ldr	r0, [pc, #612]	; 97bc <Print_Message_DONE+0x30>
    9554:	e3a0101d 	mov	r1, #29
    9558:	eb000101 	bl	9964 <WriteStringUART>
    955c:	eaffff75 	b	9338 <haltLoop$>

00009560 <next4>:
    9560:	e3a06001 	mov	r6, #1
    9564:	e1a06206 	lsl	r6, r6, #4
    9568:	e0068007 	and	r8, r6, r7
    956c:	e3580000 	cmp	r8, #0
    9570:	1a000002 	bne	9580 <next5>
    9574:	e59f0244 	ldr	r0, [pc, #580]	; 97c0 <Print_Message_DONE+0x34>
    9578:	e3a01018 	mov	r1, #24
    957c:	eb0000f8 	bl	9964 <WriteStringUART>

00009580 <next5>:
    9580:	e3a06001 	mov	r6, #1
    9584:	e1a06286 	lsl	r6, r6, #5
    9588:	e0068007 	and	r8, r6, r7
    958c:	e3580000 	cmp	r8, #0
    9590:	1a000002 	bne	95a0 <next6>
    9594:	e59f0228 	ldr	r0, [pc, #552]	; 97c4 <Print_Message_DONE+0x38>
    9598:	e3a0101a 	mov	r1, #26
    959c:	eb0000f0 	bl	9964 <WriteStringUART>

000095a0 <next6>:
    95a0:	e3a06001 	mov	r6, #1
    95a4:	e1a06306 	lsl	r6, r6, #6
    95a8:	e0068007 	and	r8, r6, r7
    95ac:	e3580000 	cmp	r8, #0
    95b0:	1a000002 	bne	95c0 <next7>
    95b4:	e59f020c 	ldr	r0, [pc, #524]	; 97c8 <Print_Message_DONE+0x3c>
    95b8:	e3a0101a 	mov	r1, #26
    95bc:	eb0000e8 	bl	9964 <WriteStringUART>

000095c0 <next7>:
    95c0:	e3a06001 	mov	r6, #1
    95c4:	e1a06386 	lsl	r6, r6, #7
    95c8:	e0068007 	and	r8, r6, r7
    95cc:	e3580000 	cmp	r8, #0
    95d0:	1a000002 	bne	95e0 <next8>
    95d4:	e59f01f0 	ldr	r0, [pc, #496]	; 97cc <Print_Message_DONE+0x40>
    95d8:	e3a0101b 	mov	r1, #27
    95dc:	eb0000e0 	bl	9964 <WriteStringUART>

000095e0 <next8>:
    95e0:	e3a06001 	mov	r6, #1
    95e4:	e1a06406 	lsl	r6, r6, #8
    95e8:	e0068007 	and	r8, r6, r7
    95ec:	e3580000 	cmp	r8, #0
    95f0:	1a000002 	bne	9600 <next9>
    95f4:	e59f01d4 	ldr	r0, [pc, #468]	; 97d0 <Print_Message_DONE+0x44>
    95f8:	e3a01011 	mov	r1, #17
    95fc:	eb0000d8 	bl	9964 <WriteStringUART>

00009600 <next9>:
    9600:	e3a06001 	mov	r6, #1
    9604:	e1a06486 	lsl	r6, r6, #9
    9608:	e0068007 	and	r8, r6, r7
    960c:	e3580000 	cmp	r8, #0
    9610:	1a000002 	bne	9620 <next10>
    9614:	e59f01b8 	ldr	r0, [pc, #440]	; 97d4 <Print_Message_DONE+0x48>
    9618:	e3a01011 	mov	r1, #17
    961c:	eb0000d0 	bl	9964 <WriteStringUART>

00009620 <next10>:
    9620:	e3a06001 	mov	r6, #1
    9624:	e1a06506 	lsl	r6, r6, #10
    9628:	e0068007 	and	r8, r6, r7
    962c:	e3580000 	cmp	r8, #0
    9630:	1a000002 	bne	9640 <next11>
    9634:	e59f019c 	ldr	r0, [pc, #412]	; 97d8 <Print_Message_DONE+0x4c>
    9638:	e3a01014 	mov	r1, #20
    963c:	eb0000c8 	bl	9964 <WriteStringUART>

00009640 <next11>:
    9640:	e3a06001 	mov	r6, #1
    9644:	e1a06586 	lsl	r6, r6, #11
    9648:	e0068007 	and	r8, r6, r7
    964c:	e3580000 	cmp	r8, #0
    9650:	1a000002 	bne	9660 <CheckLoopDone>
    9654:	e59f0180 	ldr	r0, [pc, #384]	; 97dc <Print_Message_DONE+0x50>
    9658:	e3a01015 	mov	r1, #21
    965c:	eb0000c0 	bl	9964 <WriteStringUART>

00009660 <CheckLoopDone>:
    9660:	eaffff86 	b	9480 <startOfLoop>

00009664 <Read_SNES_DONE>:
    9664:	e1a0f00e 	mov	pc, lr

00009668 <Print_Message>:
    9668:	e3500000 	cmp	r0, #0
    966c:	0a000016 	beq	96cc <BPUSH>
    9670:	e3500001 	cmp	r0, #1
    9674:	0a000018 	beq	96dc <YPUSH>
    9678:	e3500002 	cmp	r0, #2
    967c:	0a00001a 	beq	96ec <SELPUSH>
    9680:	e3500003 	cmp	r0, #3
    9684:	0a00003c 	beq	977c <STAPUSH>
    9688:	e3500004 	cmp	r0, #4
    968c:	0a00001a 	beq	96fc <DUPPUSH>
    9690:	e3500005 	cmp	r0, #5
    9694:	0a00001c 	beq	970c <DDOWNPUSH>
    9698:	e3500006 	cmp	r0, #6
    969c:	0a00001e 	beq	971c <DLEFTPUSH>
    96a0:	e3500007 	cmp	r0, #7
    96a4:	0a000020 	beq	972c <DRIGHTPUSH>
    96a8:	e3500008 	cmp	r0, #8
    96ac:	0a000022 	beq	973c <APUSH>
    96b0:	e3500009 	cmp	r0, #9
    96b4:	0a000024 	beq	974c <XPUSH>
    96b8:	e350000a 	cmp	r0, #10
    96bc:	0a000026 	beq	975c <LEFTPUSH>
    96c0:	e350000b 	cmp	r0, #11
    96c4:	0a000028 	beq	976c <RIGHTPUSH>
    96c8:	ea00002f 	b	978c <Print_Message_DONE>

000096cc <BPUSH>:
    96cc:	e59f00dc 	ldr	r0, [pc, #220]	; 97b0 <Print_Message_DONE+0x24>
    96d0:	e3a01011 	mov	r1, #17
    96d4:	eb0000a2 	bl	9964 <WriteStringUART>
    96d8:	ea00002b 	b	978c <Print_Message_DONE>

000096dc <YPUSH>:
    96dc:	e59f00d0 	ldr	r0, [pc, #208]	; 97b4 <Print_Message_DONE+0x28>
    96e0:	e3a01011 	mov	r1, #17
    96e4:	eb00009e 	bl	9964 <WriteStringUART>
    96e8:	ea000027 	b	978c <Print_Message_DONE>

000096ec <SELPUSH>:
    96ec:	e59f00c4 	ldr	r0, [pc, #196]	; 97b8 <Print_Message_DONE+0x2c>
    96f0:	e3a01016 	mov	r1, #22
    96f4:	eb00009a 	bl	9964 <WriteStringUART>
    96f8:	ea000023 	b	978c <Print_Message_DONE>

000096fc <DUPPUSH>:
    96fc:	e59f00bc 	ldr	r0, [pc, #188]	; 97c0 <Print_Message_DONE+0x34>
    9700:	e3a01018 	mov	r1, #24
    9704:	eb000096 	bl	9964 <WriteStringUART>
    9708:	ea00001f 	b	978c <Print_Message_DONE>

0000970c <DDOWNPUSH>:
    970c:	e59f00b0 	ldr	r0, [pc, #176]	; 97c4 <Print_Message_DONE+0x38>
    9710:	e3a0101a 	mov	r1, #26
    9714:	eb000092 	bl	9964 <WriteStringUART>
    9718:	ea00001b 	b	978c <Print_Message_DONE>

0000971c <DLEFTPUSH>:
    971c:	e59f00a4 	ldr	r0, [pc, #164]	; 97c8 <Print_Message_DONE+0x3c>
    9720:	e3a0101a 	mov	r1, #26
    9724:	eb00008e 	bl	9964 <WriteStringUART>
    9728:	ea000017 	b	978c <Print_Message_DONE>

0000972c <DRIGHTPUSH>:
    972c:	e59f0098 	ldr	r0, [pc, #152]	; 97cc <Print_Message_DONE+0x40>
    9730:	e3a0101b 	mov	r1, #27
    9734:	eb00008a 	bl	9964 <WriteStringUART>
    9738:	ea000013 	b	978c <Print_Message_DONE>

0000973c <APUSH>:
    973c:	e59f008c 	ldr	r0, [pc, #140]	; 97d0 <Print_Message_DONE+0x44>
    9740:	e3a01011 	mov	r1, #17
    9744:	eb000086 	bl	9964 <WriteStringUART>
    9748:	ea00000f 	b	978c <Print_Message_DONE>

0000974c <XPUSH>:
    974c:	e59f0080 	ldr	r0, [pc, #128]	; 97d4 <Print_Message_DONE+0x48>
    9750:	e3a01011 	mov	r1, #17
    9754:	eb000082 	bl	9964 <WriteStringUART>
    9758:	ea00000b 	b	978c <Print_Message_DONE>

0000975c <LEFTPUSH>:
    975c:	e59f0074 	ldr	r0, [pc, #116]	; 97d8 <Print_Message_DONE+0x4c>
    9760:	e3a01014 	mov	r1, #20
    9764:	eb00007e 	bl	9964 <WriteStringUART>
    9768:	ea000007 	b	978c <Print_Message_DONE>

0000976c <RIGHTPUSH>:
    976c:	e59f0068 	ldr	r0, [pc, #104]	; 97dc <Print_Message_DONE+0x50>
    9770:	e3a01015 	mov	r1, #21
    9774:	eb00007a 	bl	9964 <WriteStringUART>
    9778:	ea000003 	b	978c <Print_Message_DONE>

0000977c <STAPUSH>:
    977c:	e59f0038 	ldr	r0, [pc, #56]	; 97bc <Print_Message_DONE+0x30>
    9780:	e3a0101d 	mov	r1, #29
    9784:	eb000076 	bl	9964 <WriteStringUART>
    9788:	eafffeea 	b	9338 <haltLoop$>

0000978c <Print_Message_DONE>:
    978c:	e1a0f00e 	mov	pc, lr
    9790:	00009180 	.word	0x00009180
    9794:	000091c6 	.word	0x000091c6
    9798:	3f200000 	.word	0x3f200000
    979c:	3f200004 	.word	0x3f200004
    97a0:	3f200028 	.word	0x3f200028
    97a4:	3f20001c 	.word	0x3f20001c
    97a8:	3f200034 	.word	0x3f200034
    97ac:	3f003004 	.word	0x3f003004
    97b0:	000091e2 	.word	0x000091e2
    97b4:	000091f3 	.word	0x000091f3
    97b8:	00009204 	.word	0x00009204
    97bc:	000092cc 	.word	0x000092cc
    97c0:	0000921a 	.word	0x0000921a
    97c4:	00009232 	.word	0x00009232
    97c8:	0000924c 	.word	0x0000924c
    97cc:	00009266 	.word	0x00009266
    97d0:	00009281 	.word	0x00009281
    97d4:	00009292 	.word	0x00009292
    97d8:	000092a3 	.word	0x000092a3
    97dc:	000092b7 	.word	0x000092b7

000097e0 <EnableJTAG>:
    97e0:	e52de004 	push	{lr}		; (str lr, [sp, #-4]!)
    97e4:	e59f0064 	ldr	r0, [pc, #100]	; 9850 <dowaitloop+0xc>
    97e8:	e0211001 	eor	r1, r1, r1
    97ec:	e5801000 	str	r1, [r0]
    97f0:	eb000012 	bl	9840 <dowait>
    97f4:	e59f0058 	ldr	r0, [pc, #88]	; 9854 <dowaitloop+0x10>
    97f8:	e59f1058 	ldr	r1, [pc, #88]	; 9858 <dowaitloop+0x14>
    97fc:	e5801000 	str	r1, [r0]
    9800:	eb00000e 	bl	9840 <dowait>
    9804:	e0211001 	eor	r1, r1, r1
    9808:	e5801000 	str	r1, [r0]
    980c:	e59f0048 	ldr	r0, [pc, #72]	; 985c <dowaitloop+0x18>
    9810:	e5901000 	ldr	r1, [r0]
    9814:	e3c11a07 	bic	r1, r1, #28672	; 0x7000
    9818:	e3811a02 	orr	r1, r1, #8192	; 0x2000
    981c:	e5801000 	str	r1, [r0]
    9820:	e59f0038 	ldr	r0, [pc, #56]	; 9860 <dowaitloop+0x1c>
    9824:	e5901000 	ldr	r1, [r0]
    9828:	e59f2034 	ldr	r2, [pc, #52]	; 9864 <dowaitloop+0x20>
    982c:	e1c11002 	bic	r1, r1, r2
    9830:	e59f2030 	ldr	r2, [pc, #48]	; 9868 <dowaitloop+0x24>
    9834:	e1811002 	orr	r1, r1, r2
    9838:	e5801000 	str	r1, [r0]
    983c:	e49df004 	pop	{pc}		; (ldr pc, [sp], #4)

00009840 <dowait>:
    9840:	e3a02f4b 	mov	r2, #300	; 0x12c

00009844 <dowaitloop>:
    9844:	e2522001 	subs	r2, r2, #1
    9848:	1afffffd 	bne	9844 <dowaitloop>
    984c:	e12fff1e 	bx	lr
    9850:	3f200094 	.word	0x3f200094
    9854:	3f200098 	.word	0x3f200098
    9858:	0bc00010 	.word	0x0bc00010
    985c:	3f200000 	.word	0x3f200000
    9860:	3f200008 	.word	0x3f200008
    9864:	00e3ffc0 	.word	0x00e3ffc0
    9868:	0061b6c0 	.word	0x0061b6c0

0000986c <InitUART>:
    986c:	e52de004 	push	{lr}		; (str lr, [sp, #-4]!)
    9870:	e59f017c 	ldr	r0, [pc, #380]	; 99f4 <WaitForCycles+0x10>
    9874:	e3a01001 	mov	r1, #1
    9878:	e5801000 	str	r1, [r0]
    987c:	e59f0174 	ldr	r0, [pc, #372]	; 99f8 <WaitForCycles+0x14>
    9880:	e0211001 	eor	r1, r1, r1
    9884:	e5801000 	str	r1, [r0]
    9888:	e59f016c 	ldr	r0, [pc, #364]	; 99fc <WaitForCycles+0x18>
    988c:	e0211001 	eor	r1, r1, r1
    9890:	e5801000 	str	r1, [r0]
    9894:	e59f0164 	ldr	r0, [pc, #356]	; 9a00 <WaitForCycles+0x1c>
    9898:	e3a01003 	mov	r1, #3
    989c:	e5801000 	str	r1, [r0]
    98a0:	e59f015c 	ldr	r0, [pc, #348]	; 9a04 <WaitForCycles+0x20>
    98a4:	e0211001 	eor	r1, r1, r1
    98a8:	e5801000 	str	r1, [r0]
    98ac:	e59f0144 	ldr	r0, [pc, #324]	; 99f8 <WaitForCycles+0x14>
    98b0:	e0211001 	eor	r1, r1, r1
    98b4:	e5801000 	str	r1, [r0]
    98b8:	e59f0148 	ldr	r0, [pc, #328]	; 9a08 <WaitForCycles+0x24>
    98bc:	e3a010c6 	mov	r1, #198	; 0xc6
    98c0:	e5801000 	str	r1, [r0]
    98c4:	e59f0140 	ldr	r0, [pc, #320]	; 9a0c <WaitForCycles+0x28>
    98c8:	e59f1140 	ldr	r1, [pc, #320]	; 9a10 <WaitForCycles+0x2c>
    98cc:	e5801000 	str	r1, [r0]
    98d0:	e3a0000e 	mov	r0, #14
    98d4:	e3a01002 	mov	r1, #2
    98d8:	eb000053 	bl	9a2c <SetGpioFunction>
    98dc:	e3a0000f 	mov	r0, #15
    98e0:	e3a01002 	mov	r1, #2
    98e4:	eb000050 	bl	9a2c <SetGpioFunction>
    98e8:	e59f0124 	ldr	r0, [pc, #292]	; 9a14 <WaitForCycles+0x30>
    98ec:	e0211001 	eor	r1, r1, r1
    98f0:	e5801000 	str	r1, [r0]
    98f4:	e3a00096 	mov	r0, #150	; 0x96
    98f8:	eb000039 	bl	99e4 <WaitForCycles>
    98fc:	e59f0114 	ldr	r0, [pc, #276]	; 9a18 <WaitForCycles+0x34>
    9900:	e3a01903 	mov	r1, #49152	; 0xc000
    9904:	e5801000 	str	r1, [r0]
    9908:	e3a00096 	mov	r0, #150	; 0x96
    990c:	eb000034 	bl	99e4 <WaitForCycles>
    9910:	e59f0100 	ldr	r0, [pc, #256]	; 9a18 <WaitForCycles+0x34>
    9914:	e0211001 	eor	r1, r1, r1
    9918:	e5801000 	str	r1, [r0]
    991c:	e59f00d8 	ldr	r0, [pc, #216]	; 99fc <WaitForCycles+0x18>
    9920:	e3a01003 	mov	r1, #3
    9924:	e5801000 	str	r1, [r0]
    9928:	e49df004 	pop	{pc}		; (ldr pc, [sp], #4)

0000992c <PutCharUART>:
    992c:	e59f20e8 	ldr	r2, [pc, #232]	; 9a1c <WaitForCycles+0x38>

00009930 <putWaitLoop$>:
    9930:	e5921000 	ldr	r1, [r2]
    9934:	e3110020 	tst	r1, #32
    9938:	0afffffc 	beq	9930 <putWaitLoop$>
    993c:	e59f20dc 	ldr	r2, [pc, #220]	; 9a20 <WaitForCycles+0x3c>
    9940:	e5820000 	str	r0, [r2]
    9944:	e1a0f00e 	mov	pc, lr

00009948 <GetCharUART>:
    9948:	e59f20cc 	ldr	r2, [pc, #204]	; 9a1c <WaitForCycles+0x38>

0000994c <getWaitLoop$>:
    994c:	e5921000 	ldr	r1, [r2]
    9950:	e3110001 	tst	r1, #1
    9954:	0afffffc 	beq	994c <getWaitLoop$>
    9958:	e59f20c0 	ldr	r2, [pc, #192]	; 9a20 <WaitForCycles+0x3c>
    995c:	e5920000 	ldr	r0, [r2]
    9960:	e1a0f00e 	mov	pc, lr

00009964 <WriteStringUART>:
    9964:	e92d4070 	push	{r4, r5, r6, lr}
    9968:	e1a04000 	mov	r4, r0
    996c:	e1a05001 	mov	r5, r1
    9970:	e3a06000 	mov	r6, #0

00009974 <writeLoop$>:
    9974:	e3550000 	cmp	r5, #0
    9978:	da000004 	ble	9990 <writeLoopEnd$>
    997c:	e7d40006 	ldrb	r0, [r4, r6]
    9980:	ebffffe9 	bl	992c <PutCharUART>
    9984:	e2866001 	add	r6, r6, #1
    9988:	e2455001 	sub	r5, r5, #1
    998c:	eafffff8 	b	9974 <writeLoop$>

00009990 <writeLoopEnd$>:
    9990:	e8bd8070 	pop	{r4, r5, r6, pc}

00009994 <ReadLineUART>:
    9994:	e92d4070 	push	{r4, r5, r6, lr}
    9998:	e1a04000 	mov	r4, r0
    999c:	e1a05001 	mov	r5, r1
    99a0:	e3a06000 	mov	r6, #0

000099a4 <readLoop$>:
    99a4:	e1360005 	teq	r6, r5
    99a8:	0a00000b 	beq	99dc <readLoopEnd$>
    99ac:	ebffffe5 	bl	9948 <GetCharUART>
    99b0:	ebffffdd 	bl	992c <PutCharUART>
    99b4:	e5c40000 	strb	r0, [r4]
    99b8:	e2866001 	add	r6, r6, #1
    99bc:	e2844001 	add	r4, r4, #1
    99c0:	e330000d 	teq	r0, #13
    99c4:	1afffff6 	bne	99a4 <readLoop$>
    99c8:	e3a0000a 	mov	r0, #10
    99cc:	ebffffd6 	bl	992c <PutCharUART>
    99d0:	e2444001 	sub	r4, r4, #1
    99d4:	e3a00000 	mov	r0, #0
    99d8:	e5c40000 	strb	r0, [r4]

000099dc <readLoopEnd$>:
    99dc:	e2460001 	sub	r0, r6, #1
    99e0:	e8bd8070 	pop	{r4, r5, r6, pc}

000099e4 <WaitForCycles>:
    99e4:	e2400001 	sub	r0, r0, #1
    99e8:	e3500000 	cmp	r0, #0
    99ec:	aafffffc 	bge	99e4 <WaitForCycles>
    99f0:	e1a0f00e 	mov	pc, lr
    99f4:	3f215004 	.word	0x3f215004
    99f8:	3f215044 	.word	0x3f215044
    99fc:	3f215060 	.word	0x3f215060
    9a00:	3f21504c 	.word	0x3f21504c
    9a04:	3f215050 	.word	0x3f215050
    9a08:	3f215048 	.word	0x3f215048
    9a0c:	3f215068 	.word	0x3f215068
    9a10:	0000010e 	.word	0x0000010e
    9a14:	3f200094 	.word	0x3f200094
    9a18:	3f200098 	.word	0x3f200098
    9a1c:	3f215054 	.word	0x3f215054
    9a20:	3f215040 	.word	0x3f215040

00009a24 <GetGpioAddress>:
    9a24:	e59f00cc 	ldr	r0, [pc, #204]	; 9af8 <GetGpio+0x44>
    9a28:	e1a0f00e 	mov	pc, lr

00009a2c <SetGpioFunction>:
    9a2c:	e3500035 	cmp	r0, #53	; 0x35
    9a30:	93510007 	cmpls	r1, #7
    9a34:	81a0f00e 	movhi	pc, lr
    9a38:	e52de004 	push	{lr}		; (str lr, [sp, #-4]!)
    9a3c:	e1a02000 	mov	r2, r0
    9a40:	ebfffff7 	bl	9a24 <GetGpioAddress>

00009a44 <functionLoop$>:
    9a44:	e3520009 	cmp	r2, #9
    9a48:	8242200a 	subhi	r2, r2, #10
    9a4c:	82800004 	addhi	r0, r0, #4
    9a50:	8afffffb 	bhi	9a44 <functionLoop$>
    9a54:	e0822082 	add	r2, r2, r2, lsl #1
    9a58:	e1a01211 	lsl	r1, r1, r2
    9a5c:	e3a03007 	mov	r3, #7
    9a60:	e1a03213 	lsl	r3, r3, r2
    9a64:	e5902000 	ldr	r2, [r0]
    9a68:	e1c22003 	bic	r2, r2, r3
    9a6c:	e1811002 	orr	r1, r1, r2
    9a70:	e5801000 	str	r1, [r0]
    9a74:	e49df004 	pop	{pc}		; (ldr pc, [sp], #4)

00009a78 <SetGpio>:
    9a78:	e3500035 	cmp	r0, #53	; 0x35
    9a7c:	81a0f00e 	movhi	pc, lr
    9a80:	e52de004 	push	{lr}		; (str lr, [sp, #-4]!)
    9a84:	e1a02000 	mov	r2, r0
    9a88:	ebffffe5 	bl	9a24 <GetGpioAddress>
    9a8c:	e1a032a2 	lsr	r3, r2, #5
    9a90:	e1a03103 	lsl	r3, r3, #2
    9a94:	e0800003 	add	r0, r0, r3
    9a98:	e202201f 	and	r2, r2, #31
    9a9c:	e3a03001 	mov	r3, #1
    9aa0:	e1a03213 	lsl	r3, r3, r2
    9aa4:	e3310000 	teq	r1, #0
    9aa8:	05803028 	streq	r3, [r0, #40]	; 0x28
    9aac:	1580301c 	strne	r3, [r0, #28]
    9ab0:	e49df004 	pop	{pc}		; (ldr pc, [sp], #4)

00009ab4 <GetGpio>:
    9ab4:	e3500035 	cmp	r0, #53	; 0x35
    9ab8:	81a0f00e 	movhi	pc, lr
    9abc:	e92d4010 	push	{r4, lr}
    9ac0:	e1a04000 	mov	r4, r0
    9ac4:	ebffffd6 	bl	9a24 <GetGpioAddress>
    9ac8:	e1a032a4 	lsr	r3, r4, #5
    9acc:	e1a03103 	lsl	r3, r3, #2
    9ad0:	e0800003 	add	r0, r0, r3
    9ad4:	e204401f 	and	r4, r4, #31
    9ad8:	e3a03001 	mov	r3, #1
    9adc:	e1a03413 	lsl	r3, r3, r4
    9ae0:	e5904034 	ldr	r4, [r0, #52]	; 0x34
    9ae4:	e0044003 	and	r4, r4, r3
    9ae8:	e3340000 	teq	r4, #0
    9aec:	03a00000 	moveq	r0, #0
    9af0:	13a00001 	movne	r0, #1
    9af4:	e8bd8010 	pop	{r4, pc}
    9af8:	3f200000 	.word	0x3f200000
